target datalayout = "e-m:e-p270:32:32-p271:32:32-p272:64:64-i64:64-i128:128-f80:128-n8:16:32:64-S128"
target triple = "x86_64-pc-linux-gnu"

%struct.Ivy_Man_t_ = type { ptr, ptr, ptr, ptr, ptr, %struct.Ivy_Obj_t_, [8 x i32], i32, i32, ptr, i32, i32, i32, i32, ptr, i32, ptr, ptr, ptr, i32, ptr, ptr, ptr, i64, i64 }
%struct.Ivy_Obj_t_ = type { i32, i32, i32, i32, ptr, ptr, ptr, ptr, ptr, ptr, ptr, ptr }
%struct.Vec_Ptr_t_ = type { i32, i32, ptr }

@Ivy_CutGetTruth_rec.uMasks = internal global [5 x i32] [i32 -1431655766, i32 -858993460, i32 -252645136, i32 -16711936, i32 -65536], align 16

; Function Attrs: inlinehint nounwind uwtable
define internal i32 @Ivy_IsComplement(ptr noundef %0) #2 {
  %2 = alloca ptr, align 8
  store ptr %0, ptr %2, align 8, !tbaa !19
  %3 = load ptr, ptr %2, align 8, !tbaa !19
  %4 = ptrtoint ptr %3 to i64
  %5 = and i64 %4, 1
  %6 = trunc i64 %5 to i32
  ret i32 %6
}

; Function Attrs: inlinehint nounwind uwtable
define internal i32 @Ivy_ObjId(ptr noundef %0) #2 {
  %2 = alloca ptr, align 8
  store ptr %0, ptr %2, align 8, !tbaa !19
  %3 = load ptr, ptr %2, align 8, !tbaa !19
  %4 = getelementptr inbounds nuw %struct.Ivy_Obj_t_, ptr %3, i32 0, i32 0
  %5 = load i32, ptr %4, align 8, !tbaa !97
  ret i32 %5
}

; Function Attrs: inlinehint nounwind uwtable
define internal ptr @Ivy_Regular(ptr noundef %0) #2 {
  %2 = alloca ptr, align 8
  store ptr %0, ptr %2, align 8, !tbaa !19
  %3 = load ptr, ptr %2, align 8, !tbaa !19
  %4 = ptrtoint ptr %3 to i64
  %5 = and i64 %4, -2
  %6 = inttoptr i64 %5 to ptr
  ret ptr %6
}

; Function Attrs: inlinehint nounwind uwtable
define internal ptr @Vec_PtrEntry(ptr noundef %0, i32 noundef %1) #2 {
  %3 = alloca ptr, align 8
  %4 = alloca i32, align 4
  store ptr %0, ptr %3, align 8, !tbaa !29
  store i32 %1, ptr %4, align 4, !tbaa !8
  %5 = load ptr, ptr %3, align 8, !tbaa !29
  %6 = getelementptr inbounds nuw %struct.Vec_Ptr_t_, ptr %5, i32 0, i32 2
  %7 = load ptr, ptr %6, align 8, !tbaa !32
  %8 = load i32, ptr %4, align 4, !tbaa !8
  %9 = sext i32 %8 to i64
  %10 = getelementptr inbounds ptr, ptr %7, i64 %9
  %11 = load ptr, ptr %10, align 8, !tbaa !33
  ret ptr %11
}

; Function Attrs: inlinehint nounwind uwtable
define internal i32 @Ivy_ObjFaninC1(ptr noundef %0) #2 {
  %2 = alloca ptr, align 8
  store ptr %0, ptr %2, align 8, !tbaa !19
  %3 = load ptr, ptr %2, align 8, !tbaa !19
  %4 = getelementptr inbounds nuw %struct.Ivy_Obj_t_, ptr %3, i32 0, i32 5
  %5 = load ptr, ptr %4, align 8, !tbaa !81
  %6 = call i32 @Ivy_IsComplement(ptr noundef %5)
  ret i32 %6
}

; Function Attrs: inlinehint nounwind uwtable
define internal i32 @Ivy_ObjFaninId1(ptr noundef %0) #2 {
  %2 = alloca ptr, align 8
  store ptr %0, ptr %2, align 8, !tbaa !19
  %3 = load ptr, ptr %2, align 8, !tbaa !19
  %4 = getelementptr inbounds nuw %struct.Ivy_Obj_t_, ptr %3, i32 0, i32 5
  %5 = load ptr, ptr %4, align 8, !tbaa !81
  %6 = icmp ne ptr %5, null
  br i1 %6, label %7, label %13

7:                                                ; preds = %1
  %8 = load ptr, ptr %2, align 8, !tbaa !19
  %9 = getelementptr inbounds nuw %struct.Ivy_Obj_t_, ptr %8, i32 0, i32 5
  %10 = load ptr, ptr %9, align 8, !tbaa !81
  %11 = call ptr @Ivy_Regular(ptr noundef %10)
  %12 = call i32 @Ivy_ObjId(ptr noundef %11)
  br label %14

13:                                               ; preds = %1
  br label %14

14:                                               ; preds = %13, %7
  %15 = phi i32 [ %12, %7 ], [ 0, %13 ]
  ret i32 %15
}

; Function Attrs: inlinehint nounwind uwtable
define internal i32 @Ivy_ObjIsBuf(ptr noundef %0) #2 {
  %2 = alloca ptr, align 8
  store ptr %0, ptr %2, align 8, !tbaa !19
  %3 = load ptr, ptr %2, align 8, !tbaa !19
  %4 = getelementptr inbounds nuw %struct.Ivy_Obj_t_, ptr %3, i32 0, i32 2
  %5 = load i32, ptr %4, align 8
  %6 = and i32 %5, 15
  %7 = icmp eq i32 %6, 7
  %8 = zext i1 %7 to i32
  ret i32 %8
}

; Function Attrs: inlinehint nounwind uwtable
define internal i32 @Ivy_ObjFaninC0(ptr noundef %0) #2 {
  %2 = alloca ptr, align 8
  store ptr %0, ptr %2, align 8, !tbaa !19
  %3 = load ptr, ptr %2, align 8, !tbaa !19
  %4 = getelementptr inbounds nuw %struct.Ivy_Obj_t_, ptr %3, i32 0, i32 4
  %5 = load ptr, ptr %4, align 8, !tbaa !80
  %6 = call i32 @Ivy_IsComplement(ptr noundef %5)
  ret i32 %6
}

; Function Attrs: inlinehint nounwind uwtable
define internal i32 @Ivy_LeafCreate(i32 noundef %0, i32 noundef %1) #2 {
  %3 = alloca i32, align 4
  %4 = alloca i32, align 4
  store i32 %0, ptr %3, align 4, !tbaa !8
  store i32 %1, ptr %4, align 4, !tbaa !8
  %5 = load i32, ptr %3, align 4, !tbaa !8
  %6 = shl i32 %5, 8
  %7 = load i32, ptr %4, align 4, !tbaa !8
  %8 = or i32 %6, %7
  ret i32 %8
}

; Function Attrs: inlinehint nounwind uwtable
define internal i32 @Ivy_LeafLat(i32 noundef %0) #2 {
  %2 = alloca i32, align 4
  store i32 %0, ptr %2, align 4, !tbaa !8
  %3 = load i32, ptr %2, align 4, !tbaa !8
  %4 = and i32 %3, 255
  ret i32 %4
}

; Function Attrs: inlinehint nounwind uwtable
define internal i32 @Ivy_ObjFaninId0(ptr noundef %0) #2 {
  %2 = alloca ptr, align 8
  store ptr %0, ptr %2, align 8, !tbaa !19
  %3 = load ptr, ptr %2, align 8, !tbaa !19
  %4 = getelementptr inbounds nuw %struct.Ivy_Obj_t_, ptr %3, i32 0, i32 4
  %5 = load ptr, ptr %4, align 8, !tbaa !80
  %6 = icmp ne ptr %5, null
  br i1 %6, label %7, label %13

7:                                                ; preds = %1
  %8 = load ptr, ptr %2, align 8, !tbaa !19
  %9 = getelementptr inbounds nuw %struct.Ivy_Obj_t_, ptr %8, i32 0, i32 4
  %10 = load ptr, ptr %9, align 8, !tbaa !80
  %11 = call ptr @Ivy_Regular(ptr noundef %10)
  %12 = call i32 @Ivy_ObjId(ptr noundef %11)
  br label %14

13:                                               ; preds = %1
  br label %14

14:                                               ; preds = %13, %7
  %15 = phi i32 [ %12, %7 ], [ 0, %13 ]
  ret i32 %15
}

; Function Attrs: inlinehint nounwind uwtable
define internal i32 @Ivy_ObjIsLatch(ptr noundef %0) #2 {
  %2 = alloca ptr, align 8
  store ptr %0, ptr %2, align 8, !tbaa !19
  %3 = load ptr, ptr %2, align 8, !tbaa !19
  %4 = getelementptr inbounds nuw %struct.Ivy_Obj_t_, ptr %3, i32 0, i32 2
  %5 = load i32, ptr %4, align 8
  %6 = and i32 %5, 15
  %7 = icmp eq i32 %6, 4
  %8 = zext i1 %7 to i32
  ret i32 %8
}

; Function Attrs: inlinehint nounwind uwtable
define internal ptr @Ivy_ManObj(ptr noundef %0, i32 noundef %1) #2 {
  %3 = alloca ptr, align 8
  %4 = alloca i32, align 4
  store ptr %0, ptr %3, align 8, !tbaa !3
  store i32 %1, ptr %4, align 4, !tbaa !8
  %5 = load ptr, ptr %3, align 8, !tbaa !3
  %6 = getelementptr inbounds nuw %struct.Ivy_Man_t_, ptr %5, i32 0, i32 3
  %7 = load ptr, ptr %6, align 8, !tbaa !12
  %8 = load i32, ptr %4, align 4, !tbaa !8
  %9 = call ptr @Vec_PtrEntry(ptr noundef %7, i32 noundef %8)
  ret ptr %9
}

; Function Attrs: inlinehint nounwind uwtable
define internal i32 @Ivy_LeafId(i32 noundef %0) #2 {
  %2 = alloca i32, align 4
  store i32 %0, ptr %2, align 4, !tbaa !8
  %3 = load i32, ptr %2, align 4, !tbaa !8
  %4 = ashr i32 %3, 8
  ret i32 %4
}

; Function Attrs: nounwind uwtable
define i32 @Ivy_CutGetTruth_rec(ptr noundef %0, i32 noundef %1, ptr noundef %2, i32 noundef %3) #0 {
  %5 = alloca i32, align 4
  %6 = alloca ptr, align 8
  %7 = alloca i32, align 4
  %8 = alloca ptr, align 8
  %9 = alloca i32, align 4
  %10 = alloca i32, align 4
  %11 = alloca i32, align 4
  %12 = alloca ptr, align 8
  %13 = alloca i32, align 4
  %14 = alloca i32, align 4
  store ptr %0, ptr %6, align 8, !tbaa !3
  store i32 %1, ptr %7, align 4, !tbaa !8
  store ptr %2, ptr %8, align 8, !tbaa !78
  store i32 %3, ptr %9, align 4, !tbaa !8
  call void @llvm.lifetime.start.p0(i64 4, ptr %10) #10
  call void @llvm.lifetime.start.p0(i64 4, ptr %11) #10
  call void @llvm.lifetime.start.p0(i64 8, ptr %12) #10
  call void @llvm.lifetime.start.p0(i64 4, ptr %13) #10
  store i32 0, ptr %13, align 4, !tbaa !8
  br label %15

15:                                               ; preds = %33, %4
  %16 = load i32, ptr %13, align 4, !tbaa !8
  %17 = load i32, ptr %9, align 4, !tbaa !8
  %18 = icmp slt i32 %16, %17
  br i1 %18, label %19, label %36

19:                                               ; preds = %15
  %20 = load i32, ptr %7, align 4, !tbaa !8
  %21 = load ptr, ptr %8, align 8, !tbaa !78
  %22 = load i32, ptr %13, align 4, !tbaa !8
  %23 = sext i32 %22 to i64
  %24 = getelementptr inbounds i32, ptr %21, i64 %23
  %25 = load i32, ptr %24, align 4, !tbaa !8
  %26 = icmp eq i32 %20, %25
  br i1 %26, label %27, label %32

27:                                               ; preds = %19
  %28 = load i32, ptr %13, align 4, !tbaa !8
  %29 = sext i32 %28 to i64
  %30 = getelementptr inbounds [5 x i32], ptr @Ivy_CutGetTruth_rec.uMasks, i64 0, i64 %29
  %31 = load i32, ptr %30, align 4, !tbaa !8
  store i32 %31, ptr %5, align 4
  store i32 1, ptr %14, align 4
  br label %100

32:                                               ; preds = %19
  br label %33

33:                                               ; preds = %32
  %34 = load i32, ptr %13, align 4, !tbaa !8
  %35 = add nsw i32 %34, 1
  store i32 %35, ptr %13, align 4, !tbaa !8
  br label %15, !llvm.loop !79

36:                                               ; preds = %15
  %37 = load ptr, ptr %6, align 8, !tbaa !3
  %38 = load i32, ptr %7, align 4, !tbaa !8
  %39 = call i32 @Ivy_LeafId(i32 noundef %38)
  %40 = call ptr @Ivy_ManObj(ptr noundef %37, i32 noundef %39)
  store ptr %40, ptr %12, align 8, !tbaa !19
  %41 = load ptr, ptr %12, align 8, !tbaa !19
  %42 = call i32 @Ivy_ObjIsLatch(ptr noundef %41)
  %43 = icmp ne i32 %42, 0
  br i1 %43, label %44, label %56

44:                                               ; preds = %36
  %45 = load ptr, ptr %12, align 8, !tbaa !19
  %46 = call i32 @Ivy_ObjFaninId0(ptr noundef %45)
  %47 = load i32, ptr %7, align 4, !tbaa !8
  %48 = call i32 @Ivy_LeafLat(i32 noundef %47)
  %49 = add nsw i32 %48, 1
  %50 = call i32 @Ivy_LeafCreate(i32 noundef %46, i32 noundef %49)
  store i32 %50, ptr %7, align 4, !tbaa !8
  %51 = load ptr, ptr %6, align 8, !tbaa !3
  %52 = load i32, ptr %7, align 4, !tbaa !8
  %53 = load ptr, ptr %8, align 8, !tbaa !78
  %54 = load i32, ptr %9, align 4, !tbaa !8
  %55 = call i32 @Ivy_CutGetTruth_rec(ptr noundef %51, i32 noundef %52, ptr noundef %53, i32 noundef %54)
  store i32 %55, ptr %5, align 4
  store i32 1, ptr %14, align 4
  br label %100

56:                                               ; preds = %36
  %57 = load ptr, ptr %12, align 8, !tbaa !19
  %58 = call i32 @Ivy_ObjFaninId0(ptr noundef %57)
  %59 = load i32, ptr %7, align 4, !tbaa !8
  %60 = call i32 @Ivy_LeafLat(i32 noundef %59)
  %61 = call i32 @Ivy_LeafCreate(i32 noundef %58, i32 noundef %60)
  store i32 %61, ptr %7, align 4, !tbaa !8
  %62 = load ptr, ptr %6, align 8, !tbaa !3
  %63 = load i32, ptr %7, align 4, !tbaa !8
  %64 = load ptr, ptr %8, align 8, !tbaa !78
  %65 = load i32, ptr %9, align 4, !tbaa !8
  %66 = call i32 @Ivy_CutGetTruth_rec(ptr noundef %62, i32 noundef %63, ptr noundef %64, i32 noundef %65)
  store i32 %66, ptr %10, align 4, !tbaa !8
  %67 = load ptr, ptr %12, align 8, !tbaa !19
  %68 = call i32 @Ivy_ObjFaninC0(ptr noundef %67)
  %69 = icmp ne i32 %68, 0
  br i1 %69, label %70, label %73

70:                                               ; preds = %56
  %71 = load i32, ptr %10, align 4, !tbaa !8
  %72 = xor i32 %71, -1
  store i32 %72, ptr %10, align 4, !tbaa !8
  br label %73

73:                                               ; preds = %70, %56
  %74 = load ptr, ptr %12, align 8, !tbaa !19
  %75 = call i32 @Ivy_ObjIsBuf(ptr noundef %74)
  %76 = icmp ne i32 %75, 0
  br i1 %76, label %77, label %79

77:                                               ; preds = %73
  %78 = load i32, ptr %10, align 4, !tbaa !8
  store i32 %78, ptr %5, align 4
  store i32 1, ptr %14, align 4
  br label %100

79:                                               ; preds = %73
  %80 = load ptr, ptr %12, align 8, !tbaa !19
  %81 = call i32 @Ivy_ObjFaninId1(ptr noundef %80)
  %82 = load i32, ptr %7, align 4, !tbaa !8
  %83 = call i32 @Ivy_LeafLat(i32 noundef %82)
  %84 = call i32 @Ivy_LeafCreate(i32 noundef %81, i32 noundef %83)
  store i32 %84, ptr %7, align 4, !tbaa !8
  %85 = load ptr, ptr %6, align 8, !tbaa !3
  %86 = load i32, ptr %7, align 4, !tbaa !8
  %87 = load ptr, ptr %8, align 8, !tbaa !78
  %88 = load i32, ptr %9, align 4, !tbaa !8
  %89 = call i32 @Ivy_CutGetTruth_rec(ptr noundef %85, i32 noundef %86, ptr noundef %87, i32 noundef %88)
  store i32 %89, ptr %11, align 4, !tbaa !8
  %90 = load ptr, ptr %12, align 8, !tbaa !19
  %91 = call i32 @Ivy_ObjFaninC1(ptr noundef %90)
  %92 = icmp ne i32 %91, 0
  br i1 %92, label %93, label %96

93:                                               ; preds = %79
  %94 = load i32, ptr %11, align 4, !tbaa !8
  %95 = xor i32 %94, -1
  store i32 %95, ptr %11, align 4, !tbaa !8
  br label %96

96:                                               ; preds = %93, %79
  %97 = load i32, ptr %10, align 4, !tbaa !8
  %98 = load i32, ptr %11, align 4, !tbaa !8
  %99 = and i32 %97, %98
  store i32 %99, ptr %5, align 4
  store i32 1, ptr %14, align 4
  br label %100

100:                                              ; preds = %96, %77, %44, %27
  call void @llvm.lifetime.end.p0(i64 4, ptr %13) #10
  call void @llvm.lifetime.end.p0(i64 8, ptr %12) #10
  call void @llvm.lifetime.end.p0(i64 4, ptr %11) #10
  call void @llvm.lifetime.end.p0(i64 4, ptr %10) #10
  %101 = load i32, ptr %5, align 4
  ret i32 %101
}