; Function Attrs: nofree nosync nounwind memory(read, inaccessiblemem: none) uwtable
define i32 @Ivy_CutGetTruth_rec(ptr noundef %0, i32 noundef %1, ptr noundef %2, i32 noundef %3) local_unnamed_addr #4 {
  %5 = icmp sgt i32 %3, 0
  %6 = getelementptr i8, ptr %0, i64 24
  br i1 %5, label %tailrecurse.us.preheader, label %.split

tailrecurse.us.preheader:                         ; preds = %4
  %wide.trip.count = zext nneg i32 %3 to i64
  br label %tailrecurse.us

tailrecurse.us:                                   ; preds = %tailrecurse.us.preheader, %Ivy_ObjFaninId0.exit.us
  %.tr57.us = phi i32 [ %18, %Ivy_ObjFaninId0.exit.us ], [ %1, %tailrecurse.us.preheader ]
  br label %19

7:                                                ; preds = %19
  %indvars.iv.next = add nuw nsw i64 %indvars.iv, 1
  %exitcond.not = icmp eq i64 %indvars.iv.next, %wide.trip.count
  br i1 %exitcond.not, label %._crit_edge.us, label %19, !llvm.loop !103

8:                                                ; preds = %._crit_edge.us
  %9 = getelementptr i8, ptr %27, i64 16
  %.val46.us = load ptr, ptr %9, align 8, !tbaa !77
  %.not.i.us = icmp eq ptr %.val46.us, null
  br i1 %.not.i.us, label %Ivy_ObjFaninId0.exit.us, label %10

10:                                               ; preds = %8
  %11 = ptrtoint ptr %.val46.us to i64
  %12 = and i64 %11, -2
  %13 = inttoptr i64 %12 to ptr
  %.val.i.us = load i32, ptr %13, align 8, !tbaa !35
  %14 = shl i32 %.val.i.us, 8
  br label %Ivy_ObjFaninId0.exit.us

Ivy_ObjFaninId0.exit.us:                          ; preds = %10, %8
  %15 = phi i32 [ %14, %10 ], [ 0, %8 ]
  %16 = and i32 %.tr57.us, 255
  %17 = add nuw nsw i32 %16, 1
  %18 = or i32 %15, %17
  br label %tailrecurse.us

19:                                               ; preds = %tailrecurse.us, %7
  %indvars.iv = phi i64 [ 0, %tailrecurse.us ], [ %indvars.iv.next, %7 ]
  %20 = getelementptr inbounds nuw i32, ptr %2, i64 %indvars.iv
  %21 = load i32, ptr %20, align 4, !tbaa !43
  %22 = icmp eq i32 %.tr57.us, %21
  br i1 %22, label %.split69.us, label %7

._crit_edge.us:                                   ; preds = %7
  %23 = ashr i32 %.tr57.us, 8
  %.val44.us = load ptr, ptr %6, align 8, !tbaa !9
  %24 = getelementptr i8, ptr %.val44.us, i64 8
  %.val44.val.us = load ptr, ptr %24, align 8, !tbaa !21
  %25 = sext i32 %23 to i64
  %26 = getelementptr inbounds ptr, ptr %.val44.val.us, i64 %25
  %27 = load ptr, ptr %26, align 8, !tbaa !22
  %28 = getelementptr i8, ptr %27, i64 8
  %.val.us = load i32, ptr %28, align 8
  %29 = and i32 %.val.us, 15
  %.not.us = icmp eq i32 %29, 4
  br i1 %.not.us, label %8, label %.split65.us

.split:                                           ; preds = %4
  %.val44 = load ptr, ptr %6, align 8, !tbaa !9
  %30 = getelementptr i8, ptr %.val44, i64 8
  %.val44.val = load ptr, ptr %30, align 8, !tbaa !21
  %31 = ashr i32 %1, 8
  %32 = sext i32 %31 to i64
  %33 = getelementptr inbounds ptr, ptr %.val44.val, i64 %32
  %34 = load ptr, ptr %33, align 8, !tbaa !22
  %35 = getelementptr i8, ptr %34, i64 8
  %.val71 = load i32, ptr %35, align 8
  %36 = and i32 %.val71, 15
  %.not72 = icmp eq i32 %36, 4
  br i1 %.not72, label %.lr.ph, label %.split65.us

.split69.us:                                      ; preds = %19
  %37 = getelementptr inbounds nuw [5 x i32], ptr @Ivy_CutGetTruth_rec.uMasks, i64 0, i64 %indvars.iv
  %38 = load i32, ptr %37, align 4, !tbaa !43
  br label %common.ret114

.lr.ph:                                           ; preds = %.split, %Ivy_ObjFaninId0.exit
  %39 = phi ptr [ %53, %Ivy_ObjFaninId0.exit ], [ %34, %.split ]
  %.tr5773 = phi i32 [ %49, %Ivy_ObjFaninId0.exit ], [ %1, %.split ]
  %40 = getelementptr i8, ptr %39, i64 16
  %.val46 = load ptr, ptr %40, align 8, !tbaa !77
  %.not.i = icmp eq ptr %.val46, null
  br i1 %.not.i, label %Ivy_ObjFaninId0.exit, label %41

41:                                               ; preds = %.lr.ph
  %42 = ptrtoint ptr %.val46 to i64
  %43 = and i64 %42, -2
  %44 = inttoptr i64 %43 to ptr
  %.val.i = load i32, ptr %44, align 8, !tbaa !35
  %45 = shl i32 %.val.i, 8
  br label %Ivy_ObjFaninId0.exit

Ivy_ObjFaninId0.exit:                             ; preds = %.lr.ph, %41
  %46 = phi i32 [ %45, %41 ], [ 0, %.lr.ph ]
  %47 = and i32 %.tr5773, 255
  %48 = add nuw nsw i32 %47, 1
  %49 = or i32 %46, %48
  %50 = ashr i32 %49, 8
  %51 = sext i32 %50 to i64
  %52 = getelementptr inbounds ptr, ptr %.val44.val, i64 %51
  %53 = load ptr, ptr %52, align 8, !tbaa !22
  %54 = getelementptr i8, ptr %53, i64 8
  %.val = load i32, ptr %54, align 8
  %55 = and i32 %.val, 15
  %.not = icmp eq i32 %55, 4
  br i1 %.not, label %.lr.ph, label %.split65.us

.split65.us:                                      ; preds = %Ivy_ObjFaninId0.exit, %._crit_edge.us, %.split
  %.us-phi = phi i32 [ %1, %.split ], [ %.tr57.us, %._crit_edge.us ], [ %49, %Ivy_ObjFaninId0.exit ]
  %.us-phi66 = phi ptr [ %34, %.split ], [ %27, %._crit_edge.us ], [ %53, %Ivy_ObjFaninId0.exit ]
  %.us-phi67 = phi i32 [ %36, %.split ], [ %29, %._crit_edge.us ], [ %55, %Ivy_ObjFaninId0.exit ]
  %56 = getelementptr i8, ptr %.us-phi66, i64 16
  %.val47 = load ptr, ptr %56, align 8, !tbaa !77
  %.not.i51 = icmp eq ptr %.val47, null
  %.pre = ptrtoint ptr %.val47 to i64
  br i1 %.not.i51, label %Ivy_ObjFaninId0.exit53, label %57

57:                                               ; preds = %.split65.us
  %58 = and i64 %.pre, -2
  %59 = inttoptr i64 %58 to ptr
  %.val.i52 = load i32, ptr %59, align 8, !tbaa !35
  %60 = shl i32 %.val.i52, 8
  br label %Ivy_ObjFaninId0.exit53

Ivy_ObjFaninId0.exit53:                           ; preds = %.split65.us, %57
  %61 = phi i32 [ %60, %57 ], [ 0, %.split65.us ]
  %62 = and i32 %.us-phi, 255
  %63 = or disjoint i32 %61, %62
  %64 = tail call i32 @Ivy_CutGetTruth_rec(ptr noundef nonnull %0, i32 noundef %63, ptr noundef %2, i32 noundef %3)
  %65 = trunc i64 %.pre to i32
  %66 = and i32 %65, 1
  %67 = sub nsw i32 0, %66
  %spec.select = xor i32 %64, %67
  %.not56 = icmp eq i32 %.us-phi67, 7
  br i1 %.not56, label %common.ret114, label %68

68:                                               ; preds = %Ivy_ObjFaninId0.exit53
  %69 = getelementptr i8, ptr %.us-phi66, i64 24
  %.val49 = load ptr, ptr %69, align 8, !tbaa !78
  %.not.i54 = icmp eq ptr %.val49, null
  %.pre85 = ptrtoint ptr %.val49 to i64
  br i1 %.not.i54, label %Ivy_ObjFaninId1.exit, label %70

70:                                               ; preds = %68
  %71 = and i64 %.pre85, -2
  %72 = inttoptr i64 %71 to ptr
  %.val.i55 = load i32, ptr %72, align 8, !tbaa !35
  %73 = shl i32 %.val.i55, 8
  br label %Ivy_ObjFaninId1.exit

common.ret114:                                    ; preds = %Ivy_ObjFaninId0.exit53, %.split69.us, %Ivy_ObjFaninId1.exit
  %common.ret114.op = phi i32 [ %80, %Ivy_ObjFaninId1.exit ], [ %38, %.split69.us ], [ %spec.select, %Ivy_ObjFaninId0.exit53 ]
  ret i32 %common.ret114.op

Ivy_ObjFaninId1.exit:                             ; preds = %68, %70
  %74 = phi i32 [ %73, %70 ], [ 0, %68 ]
  %75 = or disjoint i32 %74, %62
  %76 = tail call i32 @Ivy_CutGetTruth_rec(ptr noundef nonnull %0, i32 noundef %75, ptr noundef %2, i32 noundef %3)
  %77 = trunc i64 %.pre85 to i32
  %78 = and i32 %77, 1
  %79 = sub nsw i32 0, %78
  %spec.select43 = xor i32 %76, %79
  %80 = and i32 %spec.select43, %spec.select
  br label %common.ret114
}